; Function Attrs: mustprogress uwtable
define noundef nonnull align 8 dereferenceable(88) ptr @_ZN4LIEF5MachO15DylinkerCommandaSERKS1_(ptr noundef nonnull returned align 8 dereferenceable(88) %0, ptr noundef nonnull align 8 dereferenceable(88) %1) local_unnamed_addr #0 align 2 personality ptr @__gxx_personality_v0 {
  %3 = alloca %"class.LIEF::MachO::LoadCommand", align 8
  call void @_ZN4LIEF5MachO11LoadCommandC1ERKS1_(ptr noundef nonnull align 8 dereferenceable(56) %3, ptr noundef nonnull align 8 dereferenceable(56) %1)
  %4 = invoke noundef nonnull align 8 dereferenceable(56) ptr @_ZN4LIEF5MachO11LoadCommandaSES1_(ptr noundef nonnull align 8 dereferenceable(56) %0, ptr noundef nonnull %3)
          to label %5 unwind label %9

5:                                                ; preds = %2
  call void @_ZN4LIEF5MachO11LoadCommandD1Ev(ptr noundef nonnull align 8 dereferenceable(56) %3) #8
  %6 = getelementptr inbounds i8, ptr %0, i64 56
  %7 = getelementptr inbounds i8, ptr %1, i64 56
  %8 = call noundef nonnull align 8 dereferenceable(32) ptr @_ZNSt7__cxx1112basic_stringIcSt11char_traitsIcESaIcEEaSERKS4_(ptr noundef nonnull align 8 dereferenceable(32) %6, ptr noundef nonnull align 8 dereferenceable(32) %7)
  ret ptr %0

9:                                                ; preds = %2
  %10 = landingpad { ptr, i32 }
          cleanup
  call void @_ZN4LIEF5MachO11LoadCommandD1Ev(ptr noundef nonnull align 8 dereferenceable(56) %3) #8
  resume { ptr, i32 } %10
}